; Function Attrs: mustprogress uwtable
define internal noundef zeroext i1 @"_ZNSt17_Function_handlerIFbRKNSt7__cxx1112basic_stringIcSt11char_traitsIcESaIcEEEEZN12_GLOBAL__N_18do_cmakeEiPKPKcE3$_5E9_M_invokeERKSt9_Any_dataS7_"(ptr noundef nonnull readonly align 8 captures(none) dereferenceable(16) %0, ptr noundef nonnull align 8 dereferenceable(32) %1) #8 align 2 {
  %3 = load ptr, ptr %0, align 8
  store i32 2, ptr %3, align 4
  %4 = getelementptr inbounds nuw i8, ptr %0, i64 8
  %5 = load ptr, ptr %4, align 8
  %6 = getelementptr inbounds nuw i8, ptr %5, i64 8
  %7 = load ptr, ptr %6, align 8
  %8 = getelementptr inbounds nuw i8, ptr %5, i64 16
  %9 = load ptr, ptr %8, align 8
  %.not.i.i.i.i = icmp eq ptr %7, %9
  br i1 %.not.i.i.i.i, label %13, label %10

10:                                               ; preds = %2
  tail call void @_ZNSt15__new_allocatorINSt7__cxx1112basic_stringIcSt11char_traitsIcESaIcEEEE9constructIS5_JRA15_KcEEEvPT_DpOT0_(ptr noundef nonnull align 8 dereferenceable(24) %5, ptr noundef %7, ptr noundef nonnull align 1 dereferenceable(15) @.str.79)
  %11 = load ptr, ptr %6, align 8
  %12 = getelementptr inbounds nuw i8, ptr %11, i64 32
  store ptr %12, ptr %6, align 8
  br label %_ZNSt6vectorINSt7__cxx1112basic_stringIcSt11char_traitsIcESaIcEEESaIS5_EE12emplace_backIJRA15_KcEEERS5_DpOT_.exit.i.i.i

13:                                               ; preds = %2
  tail call void @_ZNSt6vectorINSt7__cxx1112basic_stringIcSt11char_traitsIcESaIcEEESaIS5_EE17_M_realloc_insertIJRA15_KcEEEvN9__gnu_cxx17__normal_iteratorIPS5_S7_EEDpOT_(ptr noundef nonnull align 8 dereferenceable(24) %5, ptr %7, ptr noundef nonnull align 1 dereferenceable(15) @.str.79)
  br label %_ZNSt6vectorINSt7__cxx1112basic_stringIcSt11char_traitsIcESaIcEEESaIS5_EE12emplace_backIJRA15_KcEEERS5_DpOT_.exit.i.i.i

_ZNSt6vectorINSt7__cxx1112basic_stringIcSt11char_traitsIcESaIcEEESaIS5_EE12emplace_backIJRA15_KcEEERS5_DpOT_.exit.i.i.i: ; preds = %13, %10
  %14 = load ptr, ptr %4, align 8
  %15 = getelementptr inbounds nuw i8, ptr %14, i64 8
  %16 = load ptr, ptr %15, align 8
  %17 = getelementptr inbounds nuw i8, ptr %14, i64 16
  %18 = load ptr, ptr %17, align 8
  %.not.i2.i.i.i = icmp eq ptr %16, %18
  br i1 %.not.i2.i.i.i, label %22, label %19

19:                                               ; preds = %_ZNSt6vectorINSt7__cxx1112basic_stringIcSt11char_traitsIcESaIcEEESaIS5_EE12emplace_backIJRA15_KcEEERS5_DpOT_.exit.i.i.i
  tail call void @_ZNSt7__cxx1112basic_stringIcSt11char_traitsIcESaIcEEC1ERKS4_(ptr noundef nonnull align 8 dereferenceable(32) %16, ptr noundef nonnull align 8 dereferenceable(32) %1)
  %20 = load ptr, ptr %15, align 8
  %21 = getelementptr inbounds nuw i8, ptr %20, i64 32
  store ptr %21, ptr %15, align 8
  br label %"_ZSt10__invoke_rIbRZN12_GLOBAL__N_18do_cmakeEiPKPKcE3$_5JRKNSt7__cxx1112basic_stringIcSt11char_traitsIcESaIcEEEEENSt9enable_ifIX16is_invocable_r_vIT_T0_DpT1_EESG_E4typeEOSH_DpOSI_.exit"

22:                                               ; preds = %_ZNSt6vectorINSt7__cxx1112basic_stringIcSt11char_traitsIcESaIcEEESaIS5_EE12emplace_backIJRA15_KcEEERS5_DpOT_.exit.i.i.i
  tail call void @_ZNSt6vectorINSt7__cxx1112basic_stringIcSt11char_traitsIcESaIcEEESaIS5_EE17_M_realloc_insertIJRKS5_EEEvN9__gnu_cxx17__normal_iteratorIPS5_S7_EEDpOT_(ptr noundef nonnull align 8 dereferenceable(24) %14, ptr %16, ptr noundef nonnull align 8 dereferenceable(32) %1)
  br label %"_ZSt10__invoke_rIbRZN12_GLOBAL__N_18do_cmakeEiPKPKcE3$_5JRKNSt7__cxx1112basic_stringIcSt11char_traitsIcESaIcEEEEENSt9enable_ifIX16is_invocable_r_vIT_T0_DpT1_EESG_E4typeEOSH_DpOSI_.exit"

"_ZSt10__invoke_rIbRZN12_GLOBAL__N_18do_cmakeEiPKPKcE3$_5JRKNSt7__cxx1112basic_stringIcSt11char_traitsIcESaIcEEEEENSt9enable_ifIX16is_invocable_r_vIT_T0_DpT1_EESG_E4typeEOSH_DpOSI_.exit": ; preds = %19, %22
  ret i1 true
}